; ModuleID = '9/1544.c'
source_filename = "9/1544.c"
target datalayout = "e-m:e-p270:32:32-p271:32:32-p272:64:64-i64:64-f80:128-n8:16:32:64-S128"
target triple = "x86_64-pc-linux-gnu"

@.str = private unnamed_addr constant [3 x i8] c"%d\00", align 1
@.str.1 = private unnamed_addr constant [3 x i8] c"%s\00", align 1
@.str.2 = private unnamed_addr constant [4 x i8] c"%s\0A\00", align 1

; Function Attrs: noinline nounwind uwtable
define dso_local i32 @main() #0 {
  %1 = alloca i32, align 4
  %2 = alloca i32, align 4
  %3 = alloca i32, align 4
  %4 = alloca [150 x i32], align 16
  %5 = alloca i32, align 4
  %6 = alloca i32, align 4
  %7 = alloca [150 x [20 x i8]], align 16
  %8 = alloca [20 x i8], align 16
  store i32 0, i32* %1, align 4
  %9 = call i32 (i8*, ...) @__isoc99_scanf(i8* getelementptr inbounds ([3 x i8], [3 x i8]* @.str, i64 0, i64 0), i32* %2)
  store i32 1, i32* %3, align 4
  br label %10

10:                                               ; preds = %24, %0
  %11 = load i32, i32* %3, align 4
  %12 = load i32, i32* %2, align 4
  %13 = icmp sle i32 %11, %12
  br i1 %13, label %14, label %27

14:                                               ; preds = %10
  %15 = load i32, i32* %3, align 4
  %16 = sext i32 %15 to i64
  %17 = getelementptr inbounds [150 x [20 x i8]], [150 x [20 x i8]]* %7, i64 0, i64 %16
  %18 = getelementptr inbounds [20 x i8], [20 x i8]* %17, i64 0, i64 0
  %19 = call i32 (i8*, ...) @__isoc99_scanf(i8* getelementptr inbounds ([3 x i8], [3 x i8]* @.str.1, i64 0, i64 0), i8* %18)
  %20 = load i32, i32* %3, align 4
  %21 = sext i32 %20 to i64
  %22 = getelementptr inbounds [150 x i32], [150 x i32]* %4, i64 0, i64 %21
  %23 = call i32 (i8*, ...) @__isoc99_scanf(i8* getelementptr inbounds ([3 x i8], [3 x i8]* @.str, i64 0, i64 0), i32* %22)
  br label %24

24:                                               ; preds = %14
  %25 = load i32, i32* %3, align 4
  %26 = add nsw i32 %25, 1
  store i32 %26, i32* %3, align 4
  br label %10

27:                                               ; preds = %10
  store i32 1, i32* %3, align 4
  br label %28

28:                                               ; preds = %112, %27
  %29 = load i32, i32* %3, align 4
  %30 = load i32, i32* %2, align 4
  %31 = icmp slt i32 %29, %30
  br i1 %31, label %32, label %115

32:                                               ; preds = %28
  store i32 1, i32* %6, align 4
  br label %33

33:                                               ; preds = %108, %32
  %34 = load i32, i32* %6, align 4
  %35 = load i32, i32* %2, align 4
  %36 = load i32, i32* %3, align 4
  %37 = sub nsw i32 %35, %36
  %38 = icmp sle i32 %34, %37
  br i1 %38, label %39, label %111

39:                                               ; preds = %33
  %40 = load i32, i32* %6, align 4
  %41 = add nsw i32 %40, 1
  %42 = sext i32 %41 to i64
  %43 = getelementptr inbounds [150 x i32], [150 x i32]* %4, i64 0, i64 %42
  %44 = load i32, i32* %43, align 4
  %45 = icmp sge i32 %44, 60
  br i1 %45, label %46, label %52

46:                                               ; preds = %39
  %47 = load i32, i32* %6, align 4
  %48 = sext i32 %47 to i64
  %49 = getelementptr inbounds [150 x i32], [150 x i32]* %4, i64 0, i64 %48
  %50 = load i32, i32* %49, align 4
  %51 = icmp slt i32 %50, 60
  br i1 %51, label %69, label %52

52:                                               ; preds = %46, %39
  %53 = load i32, i32* %6, align 4
  %54 = add nsw i32 %53, 1
  %55 = sext i32 %54 to i64
  %56 = getelementptr inbounds [150 x i32], [150 x i32]* %4, i64 0, i64 %55
  %57 = load i32, i32* %56, align 4
  %58 = load i32, i32* %6, align 4
  %59 = sext i32 %58 to i64
  %60 = getelementptr inbounds [150 x i32], [150 x i32]* %4, i64 0, i64 %59
  %61 = load i32, i32* %60, align 4
  %62 = icmp sgt i32 %57, %61
  br i1 %62, label %63, label %107

63:                                               ; preds = %52
  %64 = load i32, i32* %6, align 4
  %65 = sext i32 %64 to i64
  %66 = getelementptr inbounds [150 x i32], [150 x i32]* %4, i64 0, i64 %65
  %67 = load i32, i32* %66, align 4
  %68 = icmp sge i32 %67, 60
  br i1 %68, label %69, label %107

69:                                               ; preds = %63, %46
  %70 = getelementptr inbounds [20 x i8], [20 x i8]* %8, i64 0, i64 0
  %71 = load i32, i32* %6, align 4
  %72 = sext i32 %71 to i64
  %73 = getelementptr inbounds [150 x [20 x i8]], [150 x [20 x i8]]* %7, i64 0, i64 %72
  %74 = getelementptr inbounds [20 x i8], [20 x i8]* %73, i64 0, i64 0
  call void @llvm.memcpy.p0i8.p0i8.i64(i8* align 16 %70, i8* align 4 %74, i64 20, i1 false)
  %75 = load i32, i32* %6, align 4
  %76 = sext i32 %75 to i64
  %77 = getelementptr inbounds [150 x [20 x i8]], [150 x [20 x i8]]* %7, i64 0, i64 %76
  %78 = getelementptr inbounds [20 x i8], [20 x i8]* %77, i64 0, i64 0
  %79 = load i32, i32* %6, align 4
  %80 = add nsw i32 %79, 1
  %81 = sext i32 %80 to i64
  %82 = getelementptr inbounds [150 x [20 x i8]], [150 x [20 x i8]]* %7, i64 0, i64 %81
  %83 = getelementptr inbounds [20 x i8], [20 x i8]* %82, i64 0, i64 0
  call void @llvm.memcpy.p0i8.p0i8.i64(i8* align 4 %78, i8* align 4 %83, i64 20, i1 false)
  %84 = load i32, i32* %6, align 4
  %85 = add nsw i32 %84, 1
  %86 = sext i32 %85 to i64
  %87 = getelementptr inbounds [150 x [20 x i8]], [150 x [20 x i8]]* %7, i64 0, i64 %86
  %88 = getelementptr inbounds [20 x i8], [20 x i8]* %87, i64 0, i64 0
  %89 = getelementptr inbounds [20 x i8], [20 x i8]* %8, i64 0, i64 0
  call void @llvm.memcpy.p0i8.p0i8.i64(i8* align 4 %88, i8* align 16 %89, i64 20, i1 false)
  %90 = load i32, i32* %6, align 4
  %91 = sext i32 %90 to i64
  %92 = getelementptr inbounds [150 x i32], [150 x i32]* %4, i64 0, i64 %91
  %93 = load i32, i32* %92, align 4
  store i32 %93, i32* %5, align 4
  %94 = load i32, i32* %6, align 4
  %95 = add nsw i32 %94, 1
  %96 = sext i32 %95 to i64
  %97 = getelementptr inbounds [150 x i32], [150 x i32]* %4, i64 0, i64 %96
  %98 = load i32, i32* %97, align 4
  %99 = load i32, i32* %6, align 4
  %100 = sext i32 %99 to i64
  %101 = getelementptr inbounds [150 x i32], [150 x i32]* %4, i64 0, i64 %100
  store i32 %98, i32* %101, align 4
  %102 = load i32, i32* %5, align 4
  %103 = load i32, i32* %6, align 4
  %104 = add nsw i32 %103, 1
  %105 = sext i32 %104 to i64
  %106 = getelementptr inbounds [150 x i32], [150 x i32]* %4, i64 0, i64 %105
  store i32 %102, i32* %106, align 4
  br label %107

107:                                              ; preds = %69, %63, %52
  br label %108

108:                                              ; preds = %107
  %109 = load i32, i32* %6, align 4
  %110 = add nsw i32 %109, 1
  store i32 %110, i32* %6, align 4
  br label %33

111:                                              ; preds = %33
  br label %112

112:                                              ; preds = %111
  %113 = load i32, i32* %3, align 4
  %114 = add nsw i32 %113, 1
  store i32 %114, i32* %3, align 4
  br label %28

115:                                              ; preds = %28
  store i32 1, i32* %3, align 4
  br label %116

116:                                              ; preds = %126, %115
  %117 = load i32, i32* %3, align 4
  %118 = load i32, i32* %2, align 4
  %119 = icmp sle i32 %117, %118
  br i1 %119, label %120, label %129

120:                                              ; preds = %116
  %121 = load i32, i32* %3, align 4
  %122 = sext i32 %121 to i64
  %123 = getelementptr inbounds [150 x [20 x i8]], [150 x [20 x i8]]* %7, i64 0, i64 %122
  %124 = getelementptr inbounds [20 x i8], [20 x i8]* %123, i64 0, i64 0
  %125 = call i32 (i8*, ...) @printf(i8* getelementptr inbounds ([4 x i8], [4 x i8]* @.str.2, i64 0, i64 0), i8* %124)
  br label %126

126:                                              ; preds = %120
  %127 = load i32, i32* %3, align 4
  %128 = add nsw i32 %127, 1
  store i32 %128, i32* %3, align 4
  br label %116

129:                                              ; preds = %116
  %130 = load i32, i32* %1, align 4
  ret i32 %130
}

declare dso_local i32 @__isoc99_scanf(i8*, ...) #1

; Function Attrs: argmemonly nounwind willreturn
declare void @llvm.memcpy.p0i8.p0i8.i64(i8* noalias nocapture writeonly, i8* noalias nocapture readonly, i64, i1 immarg) #2

declare dso_local i32 @printf(i8*, ...) #1


!llvm.module.flags = !{!0}
!llvm.ident = !{!1}

!0 = !{i32 1, !"wchar_size", i32 4}
!1 = !{!"clang version 10.0.0-4ubuntu1 "}
